target datalayout = "e-m:e-p270:32:32-p271:32:32-p272:64:64-i64:64-i128:128-f80:128-n8:16:32:64-S128"
target triple = "x86_64-pc-linux-gnu"

%struct.Abc_Ntk_t_ = type { i32, i32, ptr, ptr, ptr, ptr, ptr, ptr, ptr, ptr, ptr, ptr, ptr, [11 x i32], i32, i32, i32, i32, ptr, i32, ptr, ptr, i32, i32, i32, double, i32, %struct.Vec_Int_t_, ptr, ptr, ptr, ptr, ptr, float, i32, ptr, ptr, ptr, ptr, ptr, ptr, ptr, ptr, ptr, ptr, ptr, ptr, ptr, ptr, ptr, ptr, ptr, ptr, ptr, ptr, ptr }
%struct.Vec_Int_t_ = type { i32, i32, ptr }
%struct.Abc_Obj_t_ = type { ptr, ptr, i32, i32, %struct.Vec_Int_t_, %struct.Vec_Int_t_, %union.anon, %union.anon.0 }
%union.anon = type { ptr }
%union.anon.0 = type { ptr }
%struct.Vec_Ptr_t_ = type { i32, i32, ptr }

@.str.42 = private unnamed_addr constant [31 x i8] c"The network is combinational.\0A\00", align 1
@.str.43 = private unnamed_addr constant [76 x i8] c"Total latches = %5d. Init0 = %d. Init1 = %d. InitDC = %d. Const data = %d.\0A\00", align 1

; Function Attrs: nounwind uwtable
define internal ptr @Abc_ObjRegular(ptr noundef %0) #0 {
  %2 = alloca ptr, align 8
  store ptr %0, ptr %2, align 8
  %3 = load ptr, ptr %2, align 8
  %4 = ptrtoint ptr %3 to i64
  %5 = and i64 %4, -2
  %6 = inttoptr i64 %5 to ptr
  ret ptr %6
}

; Function Attrs: nounwind uwtable
define internal ptr @Vec_PtrEntry(ptr noundef %0, i32 noundef %1) #0 {
  %3 = alloca ptr, align 8
  %4 = alloca i32, align 4
  store ptr %0, ptr %3, align 8
  store i32 %1, ptr %4, align 4
  %5 = load ptr, ptr %3, align 8
  %6 = getelementptr inbounds %struct.Vec_Ptr_t_, ptr %5, i32 0, i32 2
  %7 = load ptr, ptr %6, align 8
  %8 = load i32, ptr %4, align 4
  %9 = sext i32 %8 to i64
  %10 = getelementptr inbounds ptr, ptr %7, i64 %9
  %11 = load ptr, ptr %10, align 8
  ret ptr %11
}

; Function Attrs: nounwind uwtable
define internal i32 @Abc_ObjFaninC0(ptr noundef %0) #0 {
  %2 = alloca ptr, align 8
  store ptr %0, ptr %2, align 8
  %3 = load ptr, ptr %2, align 8
  %4 = getelementptr inbounds %struct.Abc_Obj_t_, ptr %3, i32 0, i32 3
  %5 = load i32, ptr %4, align 4
  %6 = lshr i32 %5, 10
  %7 = and i32 %6, 1
  ret i32 %7
}

; Function Attrs: nounwind uwtable
define internal i32 @Abc_LatchIsInit1(ptr noundef %0) #0 {
  %2 = alloca ptr, align 8
  store ptr %0, ptr %2, align 8
  %3 = load ptr, ptr %2, align 8
  %4 = getelementptr inbounds %struct.Abc_Obj_t_, ptr %3, i32 0, i32 6
  %5 = load ptr, ptr %4, align 8
  %6 = inttoptr i64 2 to ptr
  %7 = icmp eq ptr %5, %6
  %8 = zext i1 %7 to i32
  ret i32 %8
}

; Function Attrs: nounwind uwtable
define internal i32 @Abc_LatchIsInitDc(ptr noundef %0) #0 {
  %2 = alloca ptr, align 8
  store ptr %0, ptr %2, align 8
  %3 = load ptr, ptr %2, align 8
  %4 = getelementptr inbounds %struct.Abc_Obj_t_, ptr %3, i32 0, i32 6
  %5 = load ptr, ptr %4, align 8
  %6 = inttoptr i64 3 to ptr
  %7 = icmp eq ptr %5, %6
  %8 = zext i1 %7 to i32
  ret i32 %8
}

; Function Attrs: nounwind uwtable
define internal i32 @Abc_AigNodeIsConst(ptr noundef %0) #0 {
  %2 = alloca ptr, align 8
  store ptr %0, ptr %2, align 8
  %3 = load ptr, ptr %2, align 8
  %4 = call ptr @Abc_ObjRegular(ptr noundef %3)
  %5 = getelementptr inbounds %struct.Abc_Obj_t_, ptr %4, i32 0, i32 3
  %6 = load i32, ptr %5, align 4
  %7 = and i32 %6, 15
  %8 = icmp eq i32 %7, 1
  %9 = zext i1 %8 to i32
  ret i32 %9
}

; Function Attrs: nounwind uwtable
define internal i32 @Abc_NtkIsStrash(ptr noundef %0) #0 {
  %2 = alloca ptr, align 8
  store ptr %0, ptr %2, align 8
  %3 = load ptr, ptr %2, align 8
  %4 = getelementptr inbounds %struct.Abc_Ntk_t_, ptr %3, i32 0, i32 0
  %5 = load i32, ptr %4, align 8
  %6 = icmp eq i32 %5, 3
  %7 = zext i1 %6 to i32
  ret i32 %7
}

; Function Attrs: nounwind uwtable
define internal i32 @Abc_NtkIsLogic(ptr noundef %0) #0 {
  %2 = alloca ptr, align 8
  store ptr %0, ptr %2, align 8
  %3 = load ptr, ptr %2, align 8
  %4 = getelementptr inbounds %struct.Abc_Ntk_t_, ptr %3, i32 0, i32 0
  %5 = load i32, ptr %4, align 8
  %6 = icmp eq i32 %5, 2
  %7 = zext i1 %6 to i32
  ret i32 %7
}

; Function Attrs: nounwind uwtable
define internal ptr @Abc_ObjFanin0(ptr noundef %0) #0 {
  %2 = alloca ptr, align 8
  store ptr %0, ptr %2, align 8
  %3 = load ptr, ptr %2, align 8
  %4 = getelementptr inbounds %struct.Abc_Obj_t_, ptr %3, i32 0, i32 0
  %5 = load ptr, ptr %4, align 8
  %6 = getelementptr inbounds %struct.Abc_Ntk_t_, ptr %5, i32 0, i32 5
  %7 = load ptr, ptr %6, align 8
  %8 = getelementptr inbounds %struct.Vec_Ptr_t_, ptr %7, i32 0, i32 2
  %9 = load ptr, ptr %8, align 8
  %10 = load ptr, ptr %2, align 8
  %11 = getelementptr inbounds %struct.Abc_Obj_t_, ptr %10, i32 0, i32 4
  %12 = getelementptr inbounds %struct.Vec_Int_t_, ptr %11, i32 0, i32 2
  %13 = load ptr, ptr %12, align 8
  %14 = getelementptr inbounds i32, ptr %13, i64 0
  %15 = load i32, ptr %14, align 4
  %16 = sext i32 %15 to i64
  %17 = getelementptr inbounds ptr, ptr %9, i64 %16
  %18 = load ptr, ptr %17, align 8
  ret ptr %18
}

; Function Attrs: nounwind uwtable
define internal i32 @Abc_LatchInit(ptr noundef %0) #0 {
  %2 = alloca ptr, align 8
  store ptr %0, ptr %2, align 8
  %3 = load ptr, ptr %2, align 8
  %4 = getelementptr inbounds %struct.Abc_Obj_t_, ptr %3, i32 0, i32 6
  %5 = load ptr, ptr %4, align 8
  %6 = ptrtoint ptr %5 to i64
  %7 = trunc i64 %6 to i32
  ret i32 %7
}

; Function Attrs: nounwind uwtable
define internal i32 @Abc_ObjIsLatch(ptr noundef %0) #0 {
  %2 = alloca ptr, align 8
  store ptr %0, ptr %2, align 8
  %3 = load ptr, ptr %2, align 8
  %4 = getelementptr inbounds %struct.Abc_Obj_t_, ptr %3, i32 0, i32 3
  %5 = load i32, ptr %4, align 4
  %6 = and i32 %5, 15
  %7 = icmp eq i32 %6, 8
  %8 = zext i1 %7 to i32
  ret i32 %8
}

; Function Attrs: nounwind uwtable
define internal ptr @Abc_NtkBox(ptr noundef %0, i32 noundef %1) #0 {
  %3 = alloca ptr, align 8
  %4 = alloca i32, align 4
  store ptr %0, ptr %3, align 8
  store i32 %1, ptr %4, align 4
  %5 = load ptr, ptr %3, align 8
  %6 = getelementptr inbounds %struct.Abc_Ntk_t_, ptr %5, i32 0, i32 11
  %7 = load ptr, ptr %6, align 8
  %8 = load i32, ptr %4, align 4
  %9 = call ptr @Vec_PtrEntry(ptr noundef %7, i32 noundef %8)
  ret ptr %9
}

; Function Attrs: nounwind uwtable
define internal i32 @Vec_PtrSize(ptr noundef %0) #0 {
  %2 = alloca ptr, align 8
  store ptr %0, ptr %2, align 8
  %3 = load ptr, ptr %2, align 8
  %4 = getelementptr inbounds %struct.Vec_Ptr_t_, ptr %3, i32 0, i32 1
  %5 = load i32, ptr %4, align 4
  ret i32 %5
}

; Function Attrs: nounwind uwtable
define internal i32 @Abc_NtkLatchNum(ptr noundef %0) #0 {
  %2 = alloca ptr, align 8
  store ptr %0, ptr %2, align 8
  %3 = load ptr, ptr %2, align 8
  %4 = getelementptr inbounds %struct.Abc_Ntk_t_, ptr %3, i32 0, i32 13
  %5 = getelementptr inbounds [11 x i32], ptr %4, i64 0, i64 8
  %6 = load i32, ptr %5, align 8
  ret i32 %6
}

; Function Attrs: nounwind uwtable
define void @Abc_NtkPrintLatch(ptr noundef %0, ptr noundef %1) #0 {
  %3 = alloca ptr, align 8
  %4 = alloca ptr, align 8
  %5 = alloca ptr, align 8
  %6 = alloca ptr, align 8
  %7 = alloca i32, align 4
  %8 = alloca i32, align 4
  %9 = alloca i32, align 4
  %10 = alloca i32, align 4
  %11 = alloca [4 x i32], align 16
  %12 = alloca i32, align 4
  store ptr %0, ptr %3, align 8
  store ptr %1, ptr %4, align 8
  %13 = load ptr, ptr %4, align 8
  %14 = call i32 @Abc_NtkLatchNum(ptr noundef %13)
  %15 = icmp eq i32 %14, 0
  br i1 %15, label %16, label %19

16:                                               ; preds = %2
  %17 = load ptr, ptr %3, align 8
  %18 = call i32 (ptr, ptr, ...) @fprintf(ptr noundef %17, ptr noundef @.str.42) #11
  br label %136

19:                                               ; preds = %2
  store i32 0, ptr %7, align 4
  br label %20

20:                                               ; preds = %27, %19
  %21 = load i32, ptr %7, align 4
  %22 = icmp slt i32 %21, 4
  br i1 %22, label %23, label %30

23:                                               ; preds = %20
  %24 = load i32, ptr %7, align 4
  %25 = sext i32 %24 to i64
  %26 = getelementptr inbounds [4 x i32], ptr %11, i64 0, i64 %25
  store i32 0, ptr %26, align 4
  br label %27

27:                                               ; preds = %23
  %28 = load i32, ptr %7, align 4
  %29 = add nsw i32 %28, 1
  store i32 %29, ptr %7, align 4
  br label %20, !llvm.loop !20

30:                                               ; preds = %20
  store i32 0, ptr %10, align 4
  store i32 0, ptr %9, align 4
  store i32 0, ptr %8, align 4
  store i32 0, ptr %7, align 4
  br label %31

31:                                               ; preds = %121, %30
  %32 = load i32, ptr %7, align 4
  %33 = load ptr, ptr %4, align 8
  %34 = getelementptr inbounds %struct.Abc_Ntk_t_, ptr %33, i32 0, i32 11
  %35 = load ptr, ptr %34, align 8
  %36 = call i32 @Vec_PtrSize(ptr noundef %35)
  %37 = icmp slt i32 %32, %36
  br i1 %37, label %38, label %42

38:                                               ; preds = %31
  %39 = load ptr, ptr %4, align 8
  %40 = load i32, ptr %7, align 4
  %41 = call ptr @Abc_NtkBox(ptr noundef %39, i32 noundef %40)
  store ptr %41, ptr %5, align 8
  br label %42

42:                                               ; preds = %38, %31
  %43 = phi i1 [ false, %31 ], [ true, %38 ]
  br i1 %43, label %44, label %124

44:                                               ; preds = %42
  %45 = load ptr, ptr %5, align 8
  %46 = call i32 @Abc_ObjIsLatch(ptr noundef %45)
  %47 = icmp ne i32 %46, 0
  br i1 %47, label %49, label %48

48:                                               ; preds = %44
  br label %120

49:                                               ; preds = %44
  %50 = load ptr, ptr %5, align 8
  %51 = call i32 @Abc_LatchInit(ptr noundef %50)
  store i32 %51, ptr %12, align 4
  %52 = load i32, ptr %12, align 4
  %53 = sext i32 %52 to i64
  %54 = getelementptr inbounds [4 x i32], ptr %11, i64 0, i64 %53
  %55 = load i32, ptr %54, align 4
  %56 = add nsw i32 %55, 1
  store i32 %56, ptr %54, align 4
  %57 = load ptr, ptr %5, align 8
  %58 = call ptr @Abc_ObjFanin0(ptr noundef %57)
  %59 = call ptr @Abc_ObjFanin0(ptr noundef %58)
  store ptr %59, ptr %6, align 8
  %60 = load ptr, ptr %4, align 8
  %61 = call i32 @Abc_NtkIsLogic(ptr noundef %60)
  %62 = icmp ne i32 %61, 0
  br i1 %62, label %63, label %69

63:                                               ; preds = %49
  %64 = load ptr, ptr %6, align 8
  %65 = call i32 @Abc_NodeIsConst(ptr noundef %64)
  %66 = icmp ne i32 %65, 0
  br i1 %66, label %68, label %67

67:                                               ; preds = %63
  br label %121

68:                                               ; preds = %63
  br label %81

69:                                               ; preds = %49
  %70 = load ptr, ptr %4, align 8
  %71 = call i32 @Abc_NtkIsStrash(ptr noundef %70)
  %72 = icmp ne i32 %71, 0
  br i1 %72, label %73, label %79

73:                                               ; preds = %69
  %74 = load ptr, ptr %6, align 8
  %75 = call i32 @Abc_AigNodeIsConst(ptr noundef %74)
  %76 = icmp ne i32 %75, 0
  br i1 %76, label %78, label %77

77:                                               ; preds = %73
  br label %121

78:                                               ; preds = %73
  br label %80

79:                                               ; preds = %69
  br label %80

80:                                               ; preds = %79, %78
  br label %81

81:                                               ; preds = %80, %68
  %82 = load i32, ptr %8, align 4
  %83 = add nsw i32 %82, 1
  store i32 %83, ptr %8, align 4
  %84 = load ptr, ptr %5, align 8
  %85 = call i32 @Abc_LatchIsInitDc(ptr noundef %84)
  %86 = icmp ne i32 %85, 0
  br i1 %86, label %87, label %90

87:                                               ; preds = %81
  %88 = load i32, ptr %9, align 4
  %89 = add nsw i32 %88, 1
  store i32 %89, ptr %9, align 4
  br label %121

90:                                               ; preds = %81
  %91 = load ptr, ptr %4, align 8
  %92 = call i32 @Abc_NtkIsStrash(ptr noundef %91)
  %93 = icmp ne i32 %92, 0
  br i1 %93, label %94, label %107

94:                                               ; preds = %90
  %95 = load ptr, ptr %5, align 8
  %96 = call i32 @Abc_LatchIsInit1(ptr noundef %95)
  %97 = load ptr, ptr %5, align 8
  %98 = call i32 @Abc_ObjFaninC0(ptr noundef %97)
  %99 = icmp ne i32 %98, 0
  %100 = xor i1 %99, true
  %101 = zext i1 %100 to i32
  %102 = icmp eq i32 %96, %101
  br i1 %102, label %103, label %106

103:                                              ; preds = %94
  %104 = load i32, ptr %10, align 4
  %105 = add nsw i32 %104, 1
  store i32 %105, ptr %10, align 4
  br label %106

106:                                              ; preds = %103, %94
  br label %119

107:                                              ; preds = %90
  %108 = load ptr, ptr %5, align 8
  %109 = call i32 @Abc_LatchIsInit1(ptr noundef %108)
  %110 = load ptr, ptr %5, align 8
  %111 = call ptr @Abc_ObjFanin0(ptr noundef %110)
  %112 = call ptr @Abc_ObjFanin0(ptr noundef %111)
  %113 = call i32 @Abc_NodeIsConst1(ptr noundef %112)
  %114 = icmp eq i32 %109, %113
  br i1 %114, label %115, label %118

115:                                              ; preds = %107
  %116 = load i32, ptr %10, align 4
  %117 = add nsw i32 %116, 1
  store i32 %117, ptr %10, align 4
  br label %118

118:                                              ; preds = %115, %107
  br label %119

119:                                              ; preds = %118, %106
  br label %120

120:                                              ; preds = %119, %48
  br label %121

121:                                              ; preds = %120, %87, %77, %67
  %122 = load i32, ptr %7, align 4
  %123 = add nsw i32 %122, 1
  store i32 %123, ptr %7, align 4
  br label %31, !llvm.loop !21

124:                                              ; preds = %42
  %125 = load ptr, ptr %3, align 8
  %126 = load ptr, ptr %4, align 8
  %127 = call i32 @Abc_NtkLatchNum(ptr noundef %126)
  %128 = getelementptr inbounds [4 x i32], ptr %11, i64 0, i64 1
  %129 = load i32, ptr %128, align 4
  %130 = getelementptr inbounds [4 x i32], ptr %11, i64 0, i64 2
  %131 = load i32, ptr %130, align 8
  %132 = getelementptr inbounds [4 x i32], ptr %11, i64 0, i64 3
  %133 = load i32, ptr %132, align 4
  %134 = load i32, ptr %8, align 4
  %135 = call i32 (ptr, ptr, ...) @fprintf(ptr noundef %125, ptr noundef @.str.43, i32 noundef %127, i32 noundef %129, i32 noundef %131, i32 noundef %133, i32 noundef %134) #11
  br label %136

136:                                              ; preds = %124, %16
  ret void
}