; Function Attrs: nounwind uwtable
define void @Abc_NtkPrintLatch(ptr noundef captures(none) %0, ptr noundef readonly captures(none) %1) local_unnamed_addr #0 {
  %3 = alloca [4 x i32], align 16
  %4 = getelementptr i8, ptr %1, i64 128
  %.val46 = load i32, ptr %4, align 8
  %5 = icmp eq i32 %.val46, 0
  br i1 %5, label %10, label %.preheader70.preheader

.preheader70.preheader:                           ; preds = %2
  call void @llvm.memset.p0.i64(ptr noundef nonnull align 16 dereferenceable(16) %3, i8 0, i64 16, i1 false)
  %6 = getelementptr inbounds nuw i8, ptr %1, i64 80
  %7 = load ptr, ptr %6, align 8
  %8 = getelementptr i8, ptr %7, i64 4
  %.val4772 = load i32, ptr %8, align 4
  %9 = icmp sgt i32 %.val4772, 0
  br i1 %9, label %.lr.ph, label %.critedge

10:                                               ; preds = %2
  %11 = tail call i64 @fwrite(ptr nonnull @.str.42, i64 30, i64 1, ptr %0)
  br label %71

.lr.ph:                                           ; preds = %.preheader70.preheader, %62
  %indvars.iv = phi i64 [ %indvars.iv.next, %62 ], [ 0, %.preheader70.preheader ]
  %12 = phi ptr [ %63, %62 ], [ %7, %.preheader70.preheader ]
  %.03473 = phi i32 [ %.135, %62 ], [ 0, %.preheader70.preheader ]
  %13 = getelementptr i8, ptr %12, i64 8
  %.val58.val = load ptr, ptr %13, align 8
  %14 = getelementptr inbounds nuw ptr, ptr %.val58.val, i64 %indvars.iv
  %15 = load ptr, ptr %14, align 8
  %16 = getelementptr i8, ptr %15, i64 20
  %.val59 = load i32, ptr %16, align 4
  %17 = and i32 %.val59, 15
  %.not = icmp eq i32 %17, 8
  br i1 %.not, label %18, label %62

18:                                               ; preds = %.lr.ph
  %19 = getelementptr i8, ptr %15, i64 56
  %.val60 = load ptr, ptr %19, align 8
  %20 = ptrtoint ptr %.val60 to i64
  %sext = shl i64 %20, 32
  %21 = ashr exact i64 %sext, 32
  %22 = getelementptr inbounds [4 x i32], ptr %3, i64 0, i64 %21
  %23 = load i32, ptr %22, align 4
  %24 = add nsw i32 %23, 1
  store i32 %24, ptr %22, align 4
  %.val56 = load ptr, ptr %15, align 8
  %25 = getelementptr i8, ptr %15, i64 32
  %.val57 = load ptr, ptr %25, align 8
  %26 = getelementptr i8, ptr %.val56, i64 32
  %.val56.val = load ptr, ptr %26, align 8
  %.val57.val = load i32, ptr %.val57, align 4
  %27 = getelementptr i8, ptr %.val56.val, i64 8
  %.val56.val.val = load ptr, ptr %27, align 8
  %28 = sext i32 %.val57.val to i64
  %29 = getelementptr inbounds ptr, ptr %.val56.val.val, i64 %28
  %30 = load ptr, ptr %29, align 8
  %.val54 = load ptr, ptr %30, align 8
  %31 = getelementptr i8, ptr %30, i64 32
  %.val55 = load ptr, ptr %31, align 8
  %32 = getelementptr i8, ptr %.val54, i64 32
  %.val54.val = load ptr, ptr %32, align 8
  %.val55.val = load i32, ptr %.val55, align 4
  %33 = getelementptr i8, ptr %.val54.val, i64 8
  %.val54.val.val = load ptr, ptr %33, align 8
  %34 = sext i32 %.val55.val to i64
  %35 = getelementptr inbounds ptr, ptr %.val54.val.val, i64 %34
  %36 = load ptr, ptr %35, align 8
  %.val = load i32, ptr %1, align 8
  switch i32 %.val, label %46 [
    i32 2, label %37
    i32 3, label %39
  ]

37:                                               ; preds = %18
  %38 = tail call i32 @Abc_NodeIsConst(ptr noundef %36) #19
  %.not39 = icmp eq i32 %38, 0
  br i1 %.not39, label %62, label %._crit_edge

._crit_edge:                                      ; preds = %37
  %.val61.pre = load ptr, ptr %19, align 8
  br label %46

39:                                               ; preds = %18
  %40 = ptrtoint ptr %36 to i64
  %41 = and i64 %40, -2
  %42 = inttoptr i64 %41 to ptr
  %43 = getelementptr inbounds nuw i8, ptr %42, i64 20
  %44 = load i32, ptr %43, align 4
  %45 = and i32 %44, 15
  %.not67 = icmp eq i32 %45, 1
  br i1 %.not67, label %46, label %62

46:                                               ; preds = %._crit_edge, %18, %39
  %.val61 = phi ptr [ %.val61.pre, %._crit_edge ], [ %.val60, %18 ], [ %.val60, %39 ]
  %47 = add nsw i32 %.03473, 1
  %.not68 = icmp eq ptr %.val61, inttoptr (i64 3 to ptr)
  br i1 %.not68, label %62, label %48

48:                                               ; preds = %46
  %.val48 = load i32, ptr %1, align 8
  %.not69 = icmp eq i32 %.val48, 3
  br i1 %.not69, label %62, label %49

49:                                               ; preds = %48
  %.val52 = load ptr, ptr %15, align 8
  %.val53 = load ptr, ptr %25, align 8
  %50 = getelementptr i8, ptr %.val52, i64 32
  %.val52.val = load ptr, ptr %50, align 8
  %.val53.val = load i32, ptr %.val53, align 4
  %51 = getelementptr i8, ptr %.val52.val, i64 8
  %.val52.val.val = load ptr, ptr %51, align 8
  %52 = sext i32 %.val53.val to i64
  %53 = getelementptr inbounds ptr, ptr %.val52.val.val, i64 %52
  %54 = load ptr, ptr %53, align 8
  %.val50 = load ptr, ptr %54, align 8
  %55 = getelementptr i8, ptr %54, i64 32
  %.val51 = load ptr, ptr %55, align 8
  %56 = getelementptr i8, ptr %.val50, i64 32
  %.val50.val = load ptr, ptr %56, align 8
  %.val51.val = load i32, ptr %.val51, align 4
  %57 = getelementptr i8, ptr %.val50.val, i64 8
  %.val50.val.val = load ptr, ptr %57, align 8
  %58 = sext i32 %.val51.val to i64
  %59 = getelementptr inbounds ptr, ptr %.val50.val.val, i64 %58
  %60 = load ptr, ptr %59, align 8
  %61 = tail call i32 @Abc_NodeIsConst1(ptr noundef %60) #19
  br label %62

62:                                               ; preds = %48, %46, %49, %.lr.ph, %39, %37
  %.135 = phi i32 [ %.03473, %37 ], [ %.03473, %39 ], [ %.03473, %.lr.ph ], [ %47, %49 ], [ %47, %46 ], [ %47, %48 ]
  %indvars.iv.next = add nuw nsw i64 %indvars.iv, 1
  %63 = load ptr, ptr %6, align 8
  %64 = getelementptr i8, ptr %63, i64 4
  %.val47 = load i32, ptr %64, align 4
  %65 = sext i32 %.val47 to i64
  %66 = icmp slt i64 %indvars.iv.next, %65
  br i1 %66, label %.lr.ph, label %.critedge.loopexit, !llvm.loop !20

.critedge.loopexit:                               ; preds = %62
  %.val45.pre = load i32, ptr %4, align 8
  %.phi.trans.insert = getelementptr inbounds nuw i8, ptr %3, i64 4
  %.pre = load i32, ptr %.phi.trans.insert, align 4
  %.phi.trans.insert81 = getelementptr inbounds nuw i8, ptr %3, i64 8
  %.pre82 = load i32, ptr %.phi.trans.insert81, align 8
  %.phi.trans.insert83 = getelementptr inbounds nuw i8, ptr %3, i64 12
  %.pre84 = load i32, ptr %.phi.trans.insert83, align 4
  br label %.critedge

.critedge:                                        ; preds = %.critedge.loopexit, %.preheader70.preheader
  %67 = phi i32 [ 0, %.preheader70.preheader ], [ %.pre84, %.critedge.loopexit ]
  %68 = phi i32 [ 0, %.preheader70.preheader ], [ %.pre82, %.critedge.loopexit ]
  %69 = phi i32 [ 0, %.preheader70.preheader ], [ %.pre, %.critedge.loopexit ]
  %.val45 = phi i32 [ %.val46, %.preheader70.preheader ], [ %.val45.pre, %.critedge.loopexit ]
  %.034.lcssa = phi i32 [ 0, %.preheader70.preheader ], [ %.135, %.critedge.loopexit ]
  %70 = tail call i32 (ptr, ptr, ...) @fprintf(ptr noundef %0, ptr noundef nonnull @.str.43, i32 noundef %.val45, i32 noundef %69, i32 noundef %68, i32 noundef %67, i32 noundef %.034.lcssa) #19
  br label %71

71:                                               ; preds = %.critedge, %10
  ret void
}